; Function Attrs: mustprogress uwtable
define void @_ZN5draco7EncoderC2Ev(ptr noundef nonnull align 8 dereferenceable(168) initializes((0, 8)) %0) unnamed_addr #3 align 2 {
  store ptr getelementptr inbounds nuw inrange(-16, 16) (i8, ptr @_ZTVN5draco11EncoderBaseINS_18EncoderOptionsBaseINS_17GeometryAttribute4TypeEEEEE, i64 16), ptr %0, align 8, !tbaa !3
  %2 = getelementptr inbounds nuw i8, ptr %0, i64 8
  tail call void @_ZN5draco18EncoderOptionsBaseINS_17GeometryAttribute4TypeEE20CreateDefaultOptionsEv(ptr dead_on_unwind nonnull writable sret(%"class.draco::EncoderOptionsBase") align 8 %2)
  %3 = getelementptr inbounds nuw i8, ptr %0, i64 152
  tail call void @llvm.memset.p0.i64(ptr noundef nonnull align 8 dereferenceable(16) %3, i8 0, i64 16, i1 false)
  store ptr getelementptr inbounds nuw inrange(-16, 32) (i8, ptr @_ZTVN5draco7EncoderE, i64 16), ptr %0, align 8, !tbaa !3
  ret void
}